; Function Attrs: null_pointer_is_valid sspstrong uwtable
define hidden noalias noundef ptr @xmpp_transform_func_cdata(ptr noundef %0, ptr noundef readonly captures(none) %1) local_unnamed_addr #0 {
  %3 = getelementptr inbounds nuw i8, ptr %1, i64 40
  %4 = load ptr, ptr %3, align 8
  %.not = icmp eq ptr %4, null
  br i1 %.not, label %7, label %5

5:                                                ; preds = %2
  %6 = load ptr, ptr %4, align 8
  br label %7

7:                                                ; preds = %2, %5
  %8 = phi ptr [ %6, %5 ], [ @.str.16, %2 ]
  %9 = getelementptr inbounds nuw i8, ptr %1, i64 48
  %10 = load i32, ptr %9, align 8
  %11 = getelementptr inbounds nuw i8, ptr %1, i64 52
  %12 = load i32, ptr %11, align 4
  %13 = tail call noalias dereferenceable_or_null(32) ptr @wmem_alloc(ptr noundef %0, i64 noundef 32) #10
  store ptr %8, ptr %13, align 8
  %14 = getelementptr inbounds nuw i8, ptr %13, i64 16
  store i32 %10, ptr %14, align 8
  %15 = getelementptr inbounds nuw i8, ptr %13, i64 20
  store i32 %12, ptr %15, align 4
  %16 = getelementptr inbounds nuw i8, ptr %13, i64 8
  store ptr null, ptr %16, align 8
  ret ptr %13
}